; Function Attrs: mustprogress nounwind uwtable
define hidden void @_ZN10MethodDataC2ERK12methodHandle(ptr noundef nonnull align 8 dereferenceable(312) %0, ptr nocapture noundef nonnull readonly align 8 dereferenceable(16) %1) unnamed_addr #2 align 2 {
  store ptr getelementptr inbounds inrange(-16, 112) (i8, ptr @_ZTV10MethodData, i64 16), ptr %0, align 8
  %3 = getelementptr inbounds i8, ptr %0, i64 8
  %4 = load ptr, ptr %1, align 8
  store ptr %4, ptr %3, align 8
  %5 = getelementptr inbounds i8, ptr %0, i64 24
  tail call void @_ZN5MutexC2ENS_4RankEPKcb(ptr noundef nonnull align 8 dereferenceable(104) %5, i32 noundef 21, ptr noundef nonnull @.str.42, i1 noundef zeroext true) #20
  %6 = getelementptr inbounds i8, ptr %0, i64 128
  store i32 0, ptr %6, align 8
  %7 = getelementptr inbounds i8, ptr %0, i64 132
  store i32 0, ptr %7, align 4
  %8 = getelementptr inbounds i8, ptr %0, i64 136
  store i32 0, ptr %8, align 8
  %9 = getelementptr inbounds i8, ptr %0, i64 144
  tail call void @llvm.memset.p0.i64(ptr noundef nonnull align 8 dereferenceable(64) %9, i8 0, i64 64, i1 false)
  %10 = getelementptr inbounds i8, ptr %0, i64 296
  store i32 -1, ptr %10, align 8
  tail call void @_ZN10MethodData10initializeEv(ptr noundef nonnull align 8 dereferenceable(312) %0)
  ret void
}